; Function Attrs: mustprogress nounwind uwtable
define void @_ZN32pxrInternal_v0_24__pxrReserved__20Sdf_IdentityRegistryD2Ev(ptr nocapture noundef nonnull align 8 dereferenceable(24) %0) unnamed_addr #2 align 2 personality ptr @__gxx_personality_v0 {
  %2 = getelementptr inbounds nuw i8, ptr %0, i64 16
  %3 = load ptr, ptr %2, align 8
  %.not.i = icmp eq ptr %3, null
  br i1 %.not.i, label %_ZNSt10unique_ptrIN32pxrInternal_v0_24__pxrReserved__18Sdf_IdRegistryImplESt14default_deleteIS1_EED2Ev.exit, label %_ZNKSt14default_deleteIN32pxrInternal_v0_24__pxrReserved__18Sdf_IdRegistryImplEEclEPS1_.exit.i

_ZNKSt14default_deleteIN32pxrInternal_v0_24__pxrReserved__18Sdf_IdRegistryImplEEclEPS1_.exit.i: ; preds = %1
  tail call void @_ZN32pxrInternal_v0_24__pxrReserved__18Sdf_IdRegistryImplD2Ev(ptr noundef nonnull align 8 dereferenceable(113) %3) #11
  tail call void @_ZdlPvm(ptr noundef nonnull %3, i64 noundef 120) #18
  br label %_ZNSt10unique_ptrIN32pxrInternal_v0_24__pxrReserved__18Sdf_IdRegistryImplESt14default_deleteIS1_EED2Ev.exit

_ZNSt10unique_ptrIN32pxrInternal_v0_24__pxrReserved__18Sdf_IdRegistryImplESt14default_deleteIS1_EED2Ev.exit: ; preds = %1, %_ZNKSt14default_deleteIN32pxrInternal_v0_24__pxrReserved__18Sdf_IdRegistryImplEEclEPS1_.exit.i
  store ptr null, ptr %2, align 8
  %4 = getelementptr inbounds nuw i8, ptr %0, i64 8
  %5 = load ptr, ptr %4, align 8
  %.not.i.i.i.i = icmp eq ptr %5, null
  br i1 %.not.i.i.i.i, label %_ZN32pxrInternal_v0_24__pxrReserved__9TfWeakPtrINS_8SdfLayerEED2Ev.exit, label %_ZN32pxrInternal_v0_24__pxrReserved__17Tf_RefPtr_Counter9RemoveRefEPKNS_9TfRefBaseE.exit.i.i.i

_ZN32pxrInternal_v0_24__pxrReserved__17Tf_RefPtr_Counter9RemoveRefEPKNS_9TfRefBaseE.exit.i.i.i: ; preds = %_ZNSt10unique_ptrIN32pxrInternal_v0_24__pxrReserved__18Sdf_IdRegistryImplESt14default_deleteIS1_EED2Ev.exit
  %6 = getelementptr inbounds nuw i8, ptr %5, i64 8
  %7 = atomicrmw sub ptr %6, i32 1 release, align 4
  %8 = icmp eq i32 %7, 1
  br i1 %8, label %9, label %_ZN32pxrInternal_v0_24__pxrReserved__9TfWeakPtrINS_8SdfLayerEED2Ev.exit

9:                                                ; preds = %_ZN32pxrInternal_v0_24__pxrReserved__17Tf_RefPtr_Counter9RemoveRefEPKNS_9TfRefBaseE.exit.i.i.i
  %10 = load ptr, ptr %5, align 8
  %11 = getelementptr inbounds i8, ptr %10, i64 8
  %12 = load ptr, ptr %11, align 8
  tail call void %12(ptr noundef nonnull align 8 dereferenceable(12) %5) #11
  br label %_ZN32pxrInternal_v0_24__pxrReserved__9TfWeakPtrINS_8SdfLayerEED2Ev.exit

_ZN32pxrInternal_v0_24__pxrReserved__9TfWeakPtrINS_8SdfLayerEED2Ev.exit: ; preds = %_ZNSt10unique_ptrIN32pxrInternal_v0_24__pxrReserved__18Sdf_IdRegistryImplESt14default_deleteIS1_EED2Ev.exit, %_ZN32pxrInternal_v0_24__pxrReserved__17Tf_RefPtr_Counter9RemoveRefEPKNS_9TfRefBaseE.exit.i.i.i, %9
  ret void
}